; Function Attrs: mustprogress uwtable
define void @_ZNK6casadi10MXFunction14codegen_decrefERNS_13CodeGeneratorE(ptr nocapture noundef nonnull readonly align 8 dereferenceable(1450) %0, ptr noundef nonnull align 8 dereferenceable(3097) %1) unnamed_addr #3 align 2 personality ptr @__gxx_personality_v0 {
  %3 = alloca %"class.std::set.196", align 8
  %4 = getelementptr inbounds i8, ptr %3, i64 8
  store i32 0, ptr %4, align 8
  %5 = getelementptr inbounds i8, ptr %3, i64 16
  store ptr null, ptr %5, align 8
  %6 = getelementptr inbounds i8, ptr %3, i64 24
  store ptr %4, ptr %6, align 8
  %7 = getelementptr inbounds i8, ptr %3, i64 32
  store ptr %4, ptr %7, align 8
  %8 = getelementptr inbounds i8, ptr %3, i64 40
  store i64 0, ptr %8, align 8
  %9 = getelementptr inbounds i8, ptr %0, i64 1352
  %10 = load ptr, ptr %9, align 8
  %11 = getelementptr inbounds i8, ptr %0, i64 1360
  %12 = load ptr, ptr %11, align 8
  %.not9 = icmp eq ptr %10, %12
  br i1 %.not9, label %._crit_edge, label %.lr.ph

.lr.ph:                                           ; preds = %2, %19
  %.sroa.06.010 = phi ptr [ %20, %19 ], [ %10, %2 ]
  %13 = getelementptr inbounds i8, ptr %.sroa.06.010, i64 8
  %14 = invoke noundef ptr @_ZNK6casadi2MXptEv(ptr noundef nonnull align 8 dereferenceable(8) %13)
          to label %15 unwind label %21

15:                                               ; preds = %.lr.ph
  %16 = load ptr, ptr %14, align 8
  %17 = getelementptr inbounds i8, ptr %16, i64 128
  %18 = load ptr, ptr %17, align 8
  invoke void %18(ptr noundef nonnull align 8 dereferenceable(64) %14, ptr noundef nonnull align 8 dereferenceable(3097) %1, ptr noundef nonnull align 8 dereferenceable(48) %3)
          to label %19 unwind label %21

19:                                               ; preds = %15
  %20 = getelementptr inbounds i8, ptr %.sroa.06.010, i64 64
  %.not = icmp eq ptr %20, %12
  br i1 %.not, label %._crit_edge.loopexit, label %.lr.ph

21:                                               ; preds = %15, %.lr.ph
  %22 = landingpad { ptr, i32 }
          cleanup
  call void @_ZNSt3setIPvSt4lessIS0_ESaIS0_EED2Ev(ptr noundef nonnull align 8 dereferenceable(48) %3) #23
  resume { ptr, i32 } %22

._crit_edge.loopexit:                             ; preds = %19
  %.pre = load ptr, ptr %5, align 8
  br label %._crit_edge

._crit_edge:                                      ; preds = %._crit_edge.loopexit, %2
  %23 = phi ptr [ %.pre, %._crit_edge.loopexit ], [ null, %2 ]
  invoke void @_ZNSt8_Rb_treeIPvS0_St9_IdentityIS0_ESt4lessIS0_ESaIS0_EE8_M_eraseEPSt13_Rb_tree_nodeIS0_E(ptr noundef nonnull align 8 dereferenceable(48) %3, ptr noundef %23)
          to label %_ZNSt3setIPvSt4lessIS0_ESaIS0_EED2Ev.exit unwind label %24

24:                                               ; preds = %._crit_edge
  %25 = landingpad { ptr, i32 }
          catch ptr null
  %26 = extractvalue { ptr, i32 } %25, 0
  call void @__clang_call_terminate(ptr %26) #26
  unreachable

_ZNSt3setIPvSt4lessIS0_ESaIS0_EED2Ev.exit:        ; preds = %._crit_edge
  ret void
}